target datalayout = "e-m:e-p270:32:32-p271:32:32-p272:64:64-i64:64-i128:128-f80:128-n8:16:32:64-S128"
target triple = "x86_64-pc-linux-gnu"

%struct.Llb_Mgr_t_ = type { ptr, ptr, i32, ptr, ptr, i32, i32, i32, ptr }
%struct.Llb_Var_t_ = type { i32, i32, ptr }
%struct.Vec_Int_t_ = type { i32, i32, ptr }
%struct.Llb_Prt_t_ = type { i32, i32, ptr, ptr }

; Function Attrs: inlinehint nounwind uwtable
define internal ptr @Llb_MgrVar(ptr noundef %0, i32 noundef %1) #1 {
  %3 = alloca ptr, align 8
  %4 = alloca i32, align 4
  store ptr %0, ptr %3, align 8, !tbaa !3
  store i32 %1, ptr %4, align 4, !tbaa !50
  %5 = load ptr, ptr %3, align 8, !tbaa !3
  %6 = getelementptr inbounds nuw %struct.Llb_Mgr_t_, ptr %5, i32 0, i32 4
  %7 = load ptr, ptr %6, align 8, !tbaa !10
  %8 = load i32, ptr %4, align 4, !tbaa !50
  %9 = sext i32 %8 to i64
  %10 = getelementptr inbounds ptr, ptr %7, i64 %9
  %11 = load ptr, ptr %10, align 8, !tbaa !8
  ret ptr %11
}

; Function Attrs: inlinehint nounwind uwtable
define internal i32 @Vec_IntEntry(ptr noundef %0, i32 noundef %1) #1 {
  %3 = alloca ptr, align 8
  %4 = alloca i32, align 4
  store ptr %0, ptr %3, align 8, !tbaa !21
  store i32 %1, ptr %4, align 4, !tbaa !50
  %5 = load ptr, ptr %3, align 8, !tbaa !21
  %6 = getelementptr inbounds nuw %struct.Vec_Int_t_, ptr %5, i32 0, i32 2
  %7 = load ptr, ptr %6, align 8, !tbaa !22
  %8 = load i32, ptr %4, align 4, !tbaa !50
  %9 = sext i32 %8 to i64
  %10 = getelementptr inbounds i32, ptr %7, i64 %9
  %11 = load i32, ptr %10, align 4, !tbaa !50
  ret i32 %11
}

; Function Attrs: inlinehint nounwind uwtable
define internal i32 @Vec_IntSize(ptr noundef %0) #1 {
  %2 = alloca ptr, align 8
  store ptr %0, ptr %2, align 8, !tbaa !21
  %3 = load ptr, ptr %2, align 8, !tbaa !21
  %4 = getelementptr inbounds nuw %struct.Vec_Int_t_, ptr %3, i32 0, i32 1
  %5 = load i32, ptr %4, align 4, !tbaa !53
  ret i32 %5
}

; Function Attrs: nounwind uwtable
define i32 @Llb_Nonlin4HasSingletonVars(ptr noundef %0, ptr noundef %1) #0 {
  %3 = alloca i32, align 4
  %4 = alloca ptr, align 8
  %5 = alloca ptr, align 8
  %6 = alloca ptr, align 8
  %7 = alloca i32, align 4
  %8 = alloca i32, align 4
  store ptr %0, ptr %4, align 8, !tbaa !3
  store ptr %1, ptr %5, align 8, !tbaa !24
  call void @llvm.lifetime.start.p0(i64 8, ptr %6) #8
  call void @llvm.lifetime.start.p0(i64 4, ptr %7) #8
  store i32 0, ptr %7, align 4, !tbaa !50
  br label %9

9:                                                ; preds = %34, %2
  %10 = load i32, ptr %7, align 4, !tbaa !50
  %11 = load ptr, ptr %5, align 8, !tbaa !24
  %12 = getelementptr inbounds nuw %struct.Llb_Prt_t_, ptr %11, i32 0, i32 3
  %13 = load ptr, ptr %12, align 8, !tbaa !30
  %14 = call i32 @Vec_IntSize(ptr noundef %13)
  %15 = icmp slt i32 %10, %14
  br i1 %15, label %16, label %24

16:                                               ; preds = %9
  %17 = load ptr, ptr %4, align 8, !tbaa !3
  %18 = load ptr, ptr %5, align 8, !tbaa !24
  %19 = getelementptr inbounds nuw %struct.Llb_Prt_t_, ptr %18, i32 0, i32 3
  %20 = load ptr, ptr %19, align 8, !tbaa !30
  %21 = load i32, ptr %7, align 4, !tbaa !50
  %22 = call i32 @Vec_IntEntry(ptr noundef %20, i32 noundef %21)
  %23 = call ptr @Llb_MgrVar(ptr noundef %17, i32 noundef %22)
  store ptr %23, ptr %6, align 8, !tbaa !8
  br label %24

24:                                               ; preds = %16, %9
  %25 = phi i1 [ false, %9 ], [ true, %16 ]
  br i1 %25, label %26, label %37

26:                                               ; preds = %24
  %27 = load ptr, ptr %6, align 8, !tbaa !8
  %28 = getelementptr inbounds nuw %struct.Llb_Var_t_, ptr %27, i32 0, i32 2
  %29 = load ptr, ptr %28, align 8, !tbaa !20
  %30 = call i32 @Vec_IntSize(ptr noundef %29)
  %31 = icmp eq i32 %30, 1
  br i1 %31, label %32, label %33

32:                                               ; preds = %26
  store i32 1, ptr %3, align 4
  store i32 1, ptr %8, align 4
  br label %38

33:                                               ; preds = %26
  br label %34

34:                                               ; preds = %33
  %35 = load i32, ptr %7, align 4, !tbaa !50
  %36 = add nsw i32 %35, 1
  store i32 %36, ptr %7, align 4, !tbaa !50
  br label %9, !llvm.loop !55

37:                                               ; preds = %24
  store i32 0, ptr %3, align 4
  store i32 1, ptr %8, align 4
  br label %38

38:                                               ; preds = %37, %32
  call void @llvm.lifetime.end.p0(i64 4, ptr %7) #8
  call void @llvm.lifetime.end.p0(i64 8, ptr %6) #8
  %39 = load i32, ptr %3, align 4
  ret i32 %39
}