; Function Attrs: nofree norecurse nosync nounwind memory(read, inaccessiblemem: none) uwtable
define range(i32 0, 2) i32 @Llb_Nonlin4HasSingletonVars(ptr noundef readonly captures(none) %0, ptr noundef readonly captures(none) %1) local_unnamed_addr #4 {
  %3 = getelementptr inbounds nuw i8, ptr %1, i64 16
  %4 = load ptr, ptr %3, align 8, !tbaa !27
  %5 = getelementptr i8, ptr %4, i64 4
  %.val8 = load i32, ptr %5, align 4, !tbaa !45
  %6 = icmp sgt i32 %.val8, 0
  br i1 %6, label %.lr.ph, label %.critedge

.lr.ph:                                           ; preds = %2
  %7 = getelementptr i8, ptr %4, i64 8
  %.val9 = load ptr, ptr %7, align 8, !tbaa !19
  %8 = getelementptr i8, ptr %0, i64 32
  %.val10 = load ptr, ptr %8, align 8, !tbaa !3
  %wide.trip.count = zext nneg i32 %.val8 to i64
  br label %10

9:                                                ; preds = %10
  %indvars.iv.next = add nuw nsw i64 %indvars.iv, 1
  %exitcond.not = icmp eq i64 %indvars.iv.next, %wide.trip.count
  br i1 %exitcond.not, label %.critedge, label %10, !llvm.loop !50

10:                                               ; preds = %.lr.ph, %9
  %indvars.iv = phi i64 [ 0, %.lr.ph ], [ %indvars.iv.next, %9 ]
  %11 = getelementptr inbounds nuw i32, ptr %.val9, i64 %indvars.iv
  %12 = load i32, ptr %11, align 4, !tbaa !46
  %13 = sext i32 %12 to i64
  %14 = getelementptr inbounds ptr, ptr %.val10, i64 %13
  %15 = load ptr, ptr %14, align 8, !tbaa !16
  %16 = getelementptr inbounds nuw i8, ptr %15, i64 8
  %17 = load ptr, ptr %16, align 8, !tbaa !18
  %18 = getelementptr i8, ptr %17, i64 4
  %.val = load i32, ptr %18, align 4, !tbaa !45
  %19 = icmp eq i32 %.val, 1
  br i1 %19, label %.critedge, label %9

.critedge:                                        ; preds = %10, %9, %2
  %.07 = phi i32 [ 0, %2 ], [ 0, %9 ], [ 1, %10 ]
  ret i32 %.07
}